target datalayout = "e-m:e-p270:32:32-p271:32:32-p272:64:64-i64:64-i128:128-f80:128-n8:16:32:64-S128"
target triple = "x86_64-pc-linux-gnu"

%struct.Mv = type { i32, i32 }
%struct.VVCLocalContext = type { i8, i8, i8, i8, i32, i32, [4 x i8], [3276800 x i8], [16384 x i16], [16384 x i16], [16384 x i16], [32768 x i8], [332800 x i8], [368640 x i8], [368640 x i8], [17424 x i32], %struct.anon, %struct.anon.0, ptr, [2 x [1024 x %struct.ReconstructedArea]], [2 x i32], %struct.NeighbourAvailable, i32, ptr, ptr, ptr, ptr }
%struct.anon = type { i32, i8, i32, i32, i32, [3 x i32], i32, i32, i32, i32, i32, i32 }
%struct.anon.0 = type { i32, i32, i32 }
%struct.ReconstructedArea = type { i32, i32, i32, i32 }
%struct.NeighbourAvailable = type { i32, i32, i32, i32, i32 }
%struct.MvField = type { [2 x %struct.Mv], [2 x i8], i8, i8, i8, i8 }
%struct.CodingUnit = type { i32, i32, i32, i32, i32, i32, i32, i8, i8, i8, i8, i32, i32, i8, i8, i8, i8, i8, i32, i32, i32, i32, i32, i32, [3 x i32], [3 x i32], %struct.anon.3, [4 x i8], [3 x %struct.Palette], [4 x i8], %struct.PredictionUnit, ptr }
%struct.anon.3 = type { ptr, ptr }
%struct.Palette = type { i8, [63 x i16] }
%struct.PredictionUnit = type { i8, i8, i8, i8, i8, i8, [2 x %struct.MvField], i32, %struct.MotionInfo, i8, i8, [2 x [16 x i16]], [2 x [16 x i16]], [2 x i32], [4 x i8] }
%struct.MotionInfo = type { i32, [2 x i8], i8, i8, i32, [2 x [3 x %struct.Mv]], i32, i32 }

; Function Attrs: nounwind uwtable
define void @ff_vvc_affine_mvp(ptr noundef %0, ptr noundef %1, i32 noundef %2, ptr noundef %3) #0 {
  %5 = alloca ptr, align 8
  %6 = alloca ptr, align 8
  %7 = alloca i32, align 4
  %8 = alloca ptr, align 8
  %9 = alloca ptr, align 8
  store ptr %0, ptr %5, align 8, !tbaa !14
  store ptr %1, ptr %6, align 8, !tbaa !165
  store i32 %2, ptr %7, align 4, !tbaa !9
  store ptr %3, ptr %8, align 8, !tbaa !117
  call void @llvm.lifetime.start.p0(i64 8, ptr %9) #9
  %10 = load ptr, ptr %5, align 8, !tbaa !14
  %11 = getelementptr inbounds nuw %struct.VVCLocalContext, ptr %10, i32 0, i32 18
  %12 = load ptr, ptr %11, align 8, !tbaa !90
  store ptr %12, ptr %9, align 8, !tbaa !91
  %13 = load ptr, ptr %9, align 8, !tbaa !91
  %14 = getelementptr inbounds nuw %struct.CodingUnit, ptr %13, i32 0, i32 3
  %15 = load i32, ptr %14, align 4, !tbaa !107
  %16 = ashr i32 %15, 2
  %17 = load ptr, ptr %8, align 8, !tbaa !117
  %18 = getelementptr inbounds nuw %struct.MotionInfo, ptr %17, i32 0, i32 6
  store i32 %16, ptr %18, align 4, !tbaa !119
  %19 = load ptr, ptr %9, align 8, !tbaa !91
  %20 = getelementptr inbounds nuw %struct.CodingUnit, ptr %19, i32 0, i32 4
  %21 = load i32, ptr %20, align 8, !tbaa !101
  %22 = ashr i32 %21, 2
  %23 = load ptr, ptr %8, align 8, !tbaa !117
  %24 = getelementptr inbounds nuw %struct.MotionInfo, ptr %23, i32 0, i32 7
  store i32 %22, ptr %24, align 4, !tbaa !120
  %25 = load ptr, ptr %5, align 8, !tbaa !14
  %26 = load ptr, ptr %9, align 8, !tbaa !91
  %27 = getelementptr inbounds nuw %struct.CodingUnit, ptr %26, i32 0, i32 1
  %28 = load i32, ptr %27, align 4, !tbaa !108
  %29 = load ptr, ptr %9, align 8, !tbaa !91
  %30 = getelementptr inbounds nuw %struct.CodingUnit, ptr %29, i32 0, i32 2
  %31 = load i32, ptr %30, align 8, !tbaa !109
  %32 = load ptr, ptr %9, align 8, !tbaa !91
  %33 = getelementptr inbounds nuw %struct.CodingUnit, ptr %32, i32 0, i32 3
  %34 = load i32, ptr %33, align 4, !tbaa !107
  %35 = load ptr, ptr %9, align 8, !tbaa !91
  %36 = getelementptr inbounds nuw %struct.CodingUnit, ptr %35, i32 0, i32 4
  %37 = load i32, ptr %36, align 8, !tbaa !101
  call void @ff_vvc_set_neighbour_available(ptr noundef %25, i32 noundef %28, i32 noundef %31, i32 noundef %34, i32 noundef %37)
  %38 = load ptr, ptr %8, align 8, !tbaa !117
  %39 = getelementptr inbounds nuw %struct.MotionInfo, ptr %38, i32 0, i32 4
  %40 = load i32, ptr %39, align 4, !tbaa !121
  %41 = icmp ne i32 %40, 2
  br i1 %41, label %42, label %58

42:                                               ; preds = %4
  %43 = load ptr, ptr %5, align 8, !tbaa !14
  %44 = load ptr, ptr %6, align 8, !tbaa !165
  %45 = getelementptr inbounds i32, ptr %44, i64 0
  %46 = load i32, ptr %45, align 4, !tbaa !9
  %47 = load ptr, ptr %8, align 8, !tbaa !117
  %48 = getelementptr inbounds nuw %struct.MotionInfo, ptr %47, i32 0, i32 1
  %49 = getelementptr inbounds [2 x i8], ptr %48, i64 0, i64 0
  %50 = load i32, ptr %7, align 4, !tbaa !9
  %51 = load ptr, ptr %8, align 8, !tbaa !117
  %52 = getelementptr inbounds nuw %struct.MotionInfo, ptr %51, i32 0, i32 0
  %53 = load i32, ptr %52, align 4, !tbaa !146
  %54 = load ptr, ptr %8, align 8, !tbaa !117
  %55 = getelementptr inbounds nuw %struct.MotionInfo, ptr %54, i32 0, i32 5
  %56 = getelementptr inbounds [2 x [3 x %struct.Mv]], ptr %55, i64 0, i64 0
  %57 = getelementptr inbounds [3 x %struct.Mv], ptr %56, i64 0, i64 0
  call void @affine_mvp(ptr noundef %43, i32 noundef %46, i32 noundef 0, ptr noundef %49, i32 noundef %50, i32 noundef %53, ptr noundef %57)
  br label %58

58:                                               ; preds = %42, %4
  %59 = load ptr, ptr %8, align 8, !tbaa !117
  %60 = getelementptr inbounds nuw %struct.MotionInfo, ptr %59, i32 0, i32 4
  %61 = load i32, ptr %60, align 4, !tbaa !121
  %62 = icmp ne i32 %61, 1
  br i1 %62, label %63, label %79

63:                                               ; preds = %58
  %64 = load ptr, ptr %5, align 8, !tbaa !14
  %65 = load ptr, ptr %6, align 8, !tbaa !165
  %66 = getelementptr inbounds i32, ptr %65, i64 1
  %67 = load i32, ptr %66, align 4, !tbaa !9
  %68 = load ptr, ptr %8, align 8, !tbaa !117
  %69 = getelementptr inbounds nuw %struct.MotionInfo, ptr %68, i32 0, i32 1
  %70 = getelementptr inbounds [2 x i8], ptr %69, i64 0, i64 0
  %71 = load i32, ptr %7, align 4, !tbaa !9
  %72 = load ptr, ptr %8, align 8, !tbaa !117
  %73 = getelementptr inbounds nuw %struct.MotionInfo, ptr %72, i32 0, i32 0
  %74 = load i32, ptr %73, align 4, !tbaa !146
  %75 = load ptr, ptr %8, align 8, !tbaa !117
  %76 = getelementptr inbounds nuw %struct.MotionInfo, ptr %75, i32 0, i32 5
  %77 = getelementptr inbounds [2 x [3 x %struct.Mv]], ptr %76, i64 0, i64 1
  %78 = getelementptr inbounds [3 x %struct.Mv], ptr %77, i64 0, i64 0
  call void @affine_mvp(ptr noundef %64, i32 noundef %67, i32 noundef 1, ptr noundef %70, i32 noundef %71, i32 noundef %74, ptr noundef %78)
  br label %79

79:                                               ; preds = %63, %58
  call void @llvm.lifetime.end.p0(i64 8, ptr %9) #9
  ret void
}