; Function Attrs: nounwind uwtable
define void @ff_vvc_affine_mvp(ptr noundef %0, ptr noundef readonly captures(none) %1, i32 noundef %2, ptr noundef captures(none) initializes((60, 68)) %3) local_unnamed_addr #7 {
  %5 = getelementptr inbounds nuw i8, ptr %0, i64 4547736
  %6 = load ptr, ptr %5, align 8, !tbaa !80
  %7 = getelementptr inbounds nuw i8, ptr %6, i64 12
  %8 = load i32, ptr %7, align 4, !tbaa !89
  %9 = ashr i32 %8, 2
  %10 = getelementptr inbounds nuw i8, ptr %3, i64 60
  store i32 %9, ptr %10, align 4, !tbaa !97
  %11 = getelementptr inbounds nuw i8, ptr %6, i64 16
  %12 = load i32, ptr %11, align 8, !tbaa !83
  %13 = ashr i32 %12, 2
  %14 = getelementptr inbounds nuw i8, ptr %3, i64 64
  store i32 %13, ptr %14, align 4, !tbaa !98
  %15 = getelementptr inbounds nuw i8, ptr %6, i64 4
  %16 = load i32, ptr %15, align 4, !tbaa !90
  %17 = getelementptr inbounds nuw i8, ptr %6, i64 8
  %18 = load i32, ptr %17, align 8, !tbaa !91
  tail call void @ff_vvc_set_neighbour_available(ptr noundef %0, i32 noundef %16, i32 noundef %18, i32 noundef %8, i32 noundef %12) #14
  %19 = getelementptr inbounds nuw i8, ptr %3, i64 8
  %20 = load i32, ptr %19, align 4, !tbaa !99
  %.not = icmp eq i32 %20, 2
  br i1 %.not, label %.thread, label %21

21:                                               ; preds = %4
  %22 = load i32, ptr %1, align 4, !tbaa !131
  %23 = getelementptr inbounds nuw i8, ptr %3, i64 4
  %24 = load i32, ptr %3, align 4, !tbaa !110
  %25 = getelementptr inbounds nuw i8, ptr %3, i64 12
  tail call fastcc void @affine_mvp(ptr noundef nonnull %0, i32 noundef %22, i32 noundef 0, ptr noundef nonnull %23, i32 noundef %2, i32 noundef %24, ptr noundef nonnull %25)
  %.pr = load i32, ptr %19, align 4, !tbaa !99
  %.not23 = icmp eq i32 %.pr, 1
  br i1 %.not23, label %31, label %.thread

.thread:                                          ; preds = %4, %21
  %26 = getelementptr inbounds nuw i8, ptr %1, i64 4
  %27 = load i32, ptr %26, align 4, !tbaa !131
  %28 = getelementptr inbounds nuw i8, ptr %3, i64 4
  %29 = load i32, ptr %3, align 4, !tbaa !110
  %30 = getelementptr inbounds nuw i8, ptr %3, i64 36
  tail call fastcc void @affine_mvp(ptr noundef nonnull %0, i32 noundef %27, i32 noundef 1, ptr noundef nonnull %28, i32 noundef %2, i32 noundef %29, ptr noundef nonnull %30)
  br label %31

31:                                               ; preds = %.thread, %21
  ret void
}